target datalayout = "e-m:e-p270:32:32-p271:32:32-p272:64:64-i64:64-i128:128-f80:128-n8:16:32:64-S128"
target triple = "x86_64-pc-linux-gnu"

%class.JvmtiEnvBase = type <{ %struct._jvmtiEnv, i32, i32, ptr, i8, [7 x i8], ptr, %struct.jvmtiEventCallbacks, %struct.jvmtiExtEventCallbacks, ptr, %class.JvmtiEnvEventEnable, %struct.jvmtiCapabilities, %struct.jvmtiCapabilities, i8, [7 x i8], ptr, i32, [4 x i8] }>
%struct._jvmtiEnv = type { ptr }
%struct.jvmtiEventCallbacks = type { ptr, ptr, ptr, ptr, ptr, ptr, ptr, ptr, ptr, ptr, ptr, ptr, ptr, ptr, ptr, ptr, ptr, ptr, ptr, ptr, ptr, ptr, ptr, ptr, ptr, ptr, ptr, ptr, ptr, ptr, ptr, ptr, ptr, ptr, ptr, ptr, ptr, ptr, ptr }
%struct.jvmtiExtEventCallbacks = type { ptr, ptr, ptr }
%class.JvmtiEnvEventEnable = type { %class.JvmtiEventEnabled, %class.JvmtiEventEnabled, %class.JvmtiEventEnabled }
%class.JvmtiEventEnabled = type { i64 }
%struct.jvmtiCapabilities = type { i64, i64 }

; Function Attrs: mustprogress nounwind uwtable
define linkonce_odr hidden noundef ptr @_ZN12JvmtiEnvBase27get_prohibited_capabilitiesEv(ptr noundef nonnull align 8 dereferenceable(460) %0) #1 comdat align 2 {
  %2 = alloca ptr, align 8
  store ptr %0, ptr %2, align 8
  %3 = load ptr, ptr %2, align 8
  %4 = getelementptr inbounds %class.JvmtiEnvBase, ptr %3, i32 0, i32 12
  ret ptr %4
}

; Function Attrs: mustprogress nounwind uwtable
define linkonce_odr hidden noundef ptr @_ZN12JvmtiEnvBase16get_capabilitiesEv(ptr noundef nonnull align 8 dereferenceable(460) %0) #1 comdat align 2 {
  %2 = alloca ptr, align 8
  store ptr %0, ptr %2, align 8
  %3 = load ptr, ptr %2, align 8
  %4 = getelementptr inbounds %class.JvmtiEnvBase, ptr %3, i32 0, i32 11
  ret ptr %4
}

; Function Attrs: mustprogress nounwind uwtable
define hidden void @_ZN12JvmtiEnvBase46record_first_time_class_file_load_hook_enabledEv(ptr noundef nonnull align 8 dereferenceable(460) %0) #1 align 2 {
  %2 = alloca ptr, align 8
  store ptr %0, ptr %2, align 8
  %3 = load ptr, ptr %2, align 8
  %4 = getelementptr inbounds %class.JvmtiEnvBase, ptr %3, i32 0, i32 13
  %5 = load volatile i8, ptr %4, align 8
  %6 = trunc i8 %5 to i1
  br i1 %6, label %24, label %7

7:                                                ; preds = %1
  %8 = getelementptr inbounds %class.JvmtiEnvBase, ptr %3, i32 0, i32 13
  store volatile i8 1, ptr %8, align 8
  %9 = call noundef ptr @_ZN12JvmtiEnvBase16get_capabilitiesEv(ptr noundef nonnull align 8 dereferenceable(460) %3)
  %10 = load i64, ptr %9, align 4
  %11 = lshr i64 %10, 37
  %12 = and i64 %11, 1
  %13 = trunc i64 %12 to i32
  %14 = icmp ne i32 %13, 0
  br i1 %14, label %15, label %17

15:                                               ; preds = %7
  %16 = getelementptr inbounds %class.JvmtiEnvBase, ptr %3, i32 0, i32 4
  store i8 1, ptr %16, align 8
  br label %23

17:                                               ; preds = %7
  %18 = getelementptr inbounds %class.JvmtiEnvBase, ptr %3, i32 0, i32 4
  store i8 0, ptr %18, align 8
  %19 = call noundef ptr @_ZN12JvmtiEnvBase27get_prohibited_capabilitiesEv(ptr noundef nonnull align 8 dereferenceable(460) %3)
  %20 = load i64, ptr %19, align 4
  %21 = and i64 %20, -137438953473
  %22 = or i64 %21, 137438953472
  store i64 %22, ptr %19, align 4
  br label %23

23:                                               ; preds = %17, %15
  br label %24

24:                                               ; preds = %23, %1
  ret void
}