; Function Attrs: mustprogress nofree norecurse nounwind memory(argmem: readwrite, inaccessiblemem: readwrite) uwtable
define hidden void @_ZN12JvmtiEnvBase46record_first_time_class_file_load_hook_enabledEv(ptr noundef nonnull align 8 dereferenceable(460) %0) local_unnamed_addr #6 align 2 {
  %2 = getelementptr inbounds i8, ptr %0, i64 440
  %3 = load volatile i8, ptr %2, align 8
  %4 = trunc i8 %3 to i1
  br i1 %4, label %15, label %5

5:                                                ; preds = %1
  store volatile i8 1, ptr %2, align 8
  %6 = getelementptr inbounds i8, ptr %0, i64 408
  %7 = load i64, ptr %6, align 8
  %8 = and i64 %7, 137438953472
  %.not = icmp eq i64 %8, 0
  %9 = getelementptr inbounds i8, ptr %0, i64 24
  br i1 %.not, label %11, label %10

10:                                               ; preds = %5
  store i8 1, ptr %9, align 8
  br label %15

11:                                               ; preds = %5
  store i8 0, ptr %9, align 8
  %12 = getelementptr inbounds i8, ptr %0, i64 424
  %13 = load i64, ptr %12, align 8
  %14 = or i64 %13, 137438953472
  store i64 %14, ptr %12, align 8
  br label %15

15:                                               ; preds = %10, %11, %1
  ret void
}